target datalayout = "e-m:e-p270:32:32-p271:32:32-p272:64:64-i64:64-i128:128-f80:128-n8:16:32:64-S128"
target triple = "x86_64-pc-linux-gnu"

%struct.ParamListInfoData = type { ptr, ptr, ptr, ptr, ptr, ptr, ptr, i32, [0 x %struct.ParamExternData] }
%struct.ParamExternData = type { i64, i8, i16, i32 }
%struct.ParamsErrorCbData = type { ptr, ptr }

@.str.5 = private unnamed_addr constant [32 x i8] c"portal \22%s\22 with parameters: %s\00", align 1
@.str.6 = private unnamed_addr constant [35 x i8] c"unnamed portal with parameters: %s\00", align 1

; Function Attrs: nounwind uwtable
define dso_local void @ParamsErrorCallback(ptr noundef %0) #0 {
  %2 = alloca ptr, align 8
  %3 = alloca ptr, align 8
  %4 = alloca i32, align 4
  store ptr %0, ptr %2, align 8
  call void @llvm.lifetime.start.p0(i64 8, ptr %3) #5
  %5 = load ptr, ptr %2, align 8
  store ptr %5, ptr %3, align 8
  %6 = load ptr, ptr %3, align 8
  %7 = icmp eq ptr %6, null
  br i1 %7, label %20, label %8

8:                                                ; preds = %1
  %9 = load ptr, ptr %3, align 8
  %10 = getelementptr inbounds nuw %struct.ParamsErrorCbData, ptr %9, i32 0, i32 1
  %11 = load ptr, ptr %10, align 8
  %12 = icmp eq ptr %11, null
  br i1 %12, label %20, label %13

13:                                               ; preds = %8
  %14 = load ptr, ptr %3, align 8
  %15 = getelementptr inbounds nuw %struct.ParamsErrorCbData, ptr %14, i32 0, i32 1
  %16 = load ptr, ptr %15, align 8
  %17 = getelementptr inbounds nuw %struct.ParamListInfoData, ptr %16, i32 0, i32 6
  %18 = load ptr, ptr %17, align 8
  %19 = icmp eq ptr %18, null
  br i1 %19, label %20, label %21

20:                                               ; preds = %13, %8, %1
  store i32 1, ptr %4, align 4
  br label %54

21:                                               ; preds = %13
  %22 = load ptr, ptr %3, align 8
  %23 = getelementptr inbounds nuw %struct.ParamsErrorCbData, ptr %22, i32 0, i32 0
  %24 = load ptr, ptr %23, align 8
  %25 = icmp ne ptr %24, null
  br i1 %25, label %26, label %45

26:                                               ; preds = %21
  %27 = load ptr, ptr %3, align 8
  %28 = getelementptr inbounds nuw %struct.ParamsErrorCbData, ptr %27, i32 0, i32 0
  %29 = load ptr, ptr %28, align 8
  %30 = getelementptr inbounds i8, ptr %29, i64 0
  %31 = load i8, ptr %30, align 1
  %32 = sext i8 %31 to i32
  %33 = icmp ne i32 %32, 0
  br i1 %33, label %34, label %45

34:                                               ; preds = %26
  %35 = call i32 @set_errcontext_domain(ptr noundef null)
  %36 = load ptr, ptr %3, align 8
  %37 = getelementptr inbounds nuw %struct.ParamsErrorCbData, ptr %36, i32 0, i32 0
  %38 = load ptr, ptr %37, align 8
  %39 = load ptr, ptr %3, align 8
  %40 = getelementptr inbounds nuw %struct.ParamsErrorCbData, ptr %39, i32 0, i32 1
  %41 = load ptr, ptr %40, align 8
  %42 = getelementptr inbounds nuw %struct.ParamListInfoData, ptr %41, i32 0, i32 6
  %43 = load ptr, ptr %42, align 8
  %44 = call i32 (ptr, ...) @errcontext_msg(ptr noundef @.str.5, ptr noundef %38, ptr noundef %43)
  br label %53

45:                                               ; preds = %26, %21
  %46 = call i32 @set_errcontext_domain(ptr noundef null)
  %47 = load ptr, ptr %3, align 8
  %48 = getelementptr inbounds nuw %struct.ParamsErrorCbData, ptr %47, i32 0, i32 1
  %49 = load ptr, ptr %48, align 8
  %50 = getelementptr inbounds nuw %struct.ParamListInfoData, ptr %49, i32 0, i32 6
  %51 = load ptr, ptr %50, align 8
  %52 = call i32 (ptr, ...) @errcontext_msg(ptr noundef @.str.6, ptr noundef %51)
  br label %53

53:                                               ; preds = %45, %34
  store i32 0, ptr %4, align 4
  br label %54

54:                                               ; preds = %53, %20
  call void @llvm.lifetime.end.p0(i64 8, ptr %3) #5
  %55 = load i32, ptr %4, align 4
  switch i32 %55, label %57 [
    i32 0, label %56
    i32 1, label %56
  ]

56:                                               ; preds = %54, %54
  ret void

57:                                               ; preds = %54
  unreachable
}