; Function Attrs: nounwind uwtable
define dso_local void @ParamsErrorCallback(ptr noundef readonly captures(address_is_null) %0) local_unnamed_addr #0 {
  %2 = icmp eq ptr %0, null
  br i1 %2, label %28, label %3

3:                                                ; preds = %1
  %4 = getelementptr inbounds nuw i8, ptr %0, i64 8
  %5 = load ptr, ptr %4, align 8
  %6 = icmp eq ptr %5, null
  br i1 %6, label %28, label %7

7:                                                ; preds = %3
  %8 = getelementptr inbounds nuw i8, ptr %5, i64 48
  %9 = load ptr, ptr %8, align 8
  %10 = icmp eq ptr %9, null
  br i1 %10, label %28, label %11

11:                                               ; preds = %7
  %12 = load ptr, ptr %0, align 8
  %.not = icmp eq ptr %12, null
  br i1 %.not, label %22, label %13

13:                                               ; preds = %11
  %14 = load i8, ptr %12, align 1
  %.not11 = icmp eq i8 %14, 0
  br i1 %.not11, label %22, label %15

15:                                               ; preds = %13
  %16 = tail call i32 @set_errcontext_domain(ptr noundef null) #7
  %17 = load ptr, ptr %0, align 8
  %18 = load ptr, ptr %4, align 8
  %19 = getelementptr inbounds nuw i8, ptr %18, i64 48
  %20 = load ptr, ptr %19, align 8
  %21 = tail call i32 (ptr, ...) @errcontext_msg(ptr noundef nonnull @.str.5, ptr noundef %17, ptr noundef %20) #7
  br label %28

22:                                               ; preds = %13, %11
  %23 = tail call i32 @set_errcontext_domain(ptr noundef null) #7
  %24 = load ptr, ptr %4, align 8
  %25 = getelementptr inbounds nuw i8, ptr %24, i64 48
  %26 = load ptr, ptr %25, align 8
  %27 = tail call i32 (ptr, ...) @errcontext_msg(ptr noundef nonnull @.str.6, ptr noundef %26) #7
  br label %28

28:                                               ; preds = %15, %22, %1, %3, %7
  ret void
}